Certificate:
    Data:
        Version: 3 (0x2)
        Serial Number: 3 (0x3)
        Signature Algorithm: md5WithRSAEncryption
        Issuer: C=FR, ST=IDF, L=PUTEAUX, O=Ingenico, CN=SimulAutho-CA/emailAddress=info@fr.ingenico.com
        Validity
            Not Before: Sep  8 15:33:14 2005 GMT
            Not After : Sep  6 15:33:14 2015 GMT
        Subject: C=FR, ST=IDF, O=Ingenico, CN=client2/emailAddress=info@fr.ingenico.com
        Subject Public Key Info:
            Public Key Algorithm: rsaEncryption
            RSA Public Key: (1024 bit)
                Modulus (1024 bit):
                    00:e5:04:09:59:50:46:45:38:36:71:d9:0c:4f:95:
                    5d:a3:c8:ce:9e:fc:c8:bb:9d:e2:06:37:7d:fc:e3:
                    95:32:08:76:9d:d9:2a:24:1f:78:18:bc:37:66:aa:
                    86:11:7b:b8:81:73:a0:c9:a0:5e:ab:85:3a:06:3e:
                    e7:d9:da:d5:a6:cb:f2:35:7a:60:83:5e:ed:fb:3d:
                    f7:9c:b3:5e:ec:d3:79:6d:10:53:2f:ea:20:45:3f:
                    0a:03:80:85:73:9b:2d:8c:00:c8:aa:8c:24:04:3b:
                    6e:e2:bc:a1:d4:d3:97:dc:c2:c3:30:d0:7e:1c:00:
                    ca:d1:e3:02:ec:74:dc:1c:25
                Exponent: 65537 (0x10001)
        X509v3 extensions:
            X509v3 Basic Constraints: 
                CA:FALSE
            Netscape Comment: 
                OpenSSL Generated Certificate
            X509v3 Subject Key Identifier: 
                72:B5:FB:D1:B9:DA:43:4E:4F:82:3E:EA:0C:3B:5E:CE:D3:F4:86:3F
            X509v3 Authority Key Identifier: 
                keyid:11:07:11:CD:A3:7A:E1:33:35:B1:FB:E2:02:F7:C5:4E:93:FF:68:7D
                DirName:/C=FR/ST=IDF/L=PUTEAUX/O=Ingenico/CN=SimulAutho-CA/emailAddress=info@fr.ingenico.com
                serial:E2:3E:95:8A:B6:1F:97:8E

    Signature Algorithm: md5WithRSAEncryption
        aa:61:54:80:c9:13:58:33:c1:2e:13:d4:a7:d3:6d:15:24:72:
        4f:2f:44:9f:fd:01:a3:01:c9:56:47:9b:15:26:aa:7d:ff:07:
        58:f9:a7:4f:fa:b0:c3:04:2c:f3:9c:64:c9:07:ff:2b:f2:e4:
        4a:15:b1:70:8a:ed:4b:76:3d:08:85:e4:9c:e1:73:f4:c8:79:
        43:3c:82:c1:72:69:d6:f5:c1:04:9f:a2:32:b1:4b:e6:8e:f0:
        d5:86:9f:9f:1e:e9:90:98:dc:35:c0:9a:59:c9:07:e5:37:28:
        84:03:4a:19:27:8f:86:be:88:1b:db:6b:17:dd:c6:10:80:75:
        c8:e5
-----BEGIN CERTIFICATE-----
MIIDaTCCAtKgAwIBAgIBAzANBgkqhkiG9w0BAQQFADB9MQswCQYDVQQGEwJGUjEM
MAoGA1UECBMDSURGMRAwDgYDVQQHEwdQVVRFQVVYMREwDwYDVQQKEwhJbmdlbmlj
bzEWMBQGA1UEAxMNU2ltdWxBdXRoby1DQTEjMCEGCSqGSIb3DQEJARYUaW5mb0Bm
ci5pbmdlbmljby5jb20wHhcNMDUwOTA4MTUzMzE0WhcNMTUwOTA2MTUzMzE0WjBl
MQswCQYDVQQGEwJGUjEMMAoGA1UECBMDSURGMREwDwYDVQQKEwhJbmdlbmljbzEQ
MA4GA1UEAxMHY2xpZW50MjEjMCEGCSqGSIb3DQEJARYUaW5mb0Bmci5pbmdlbmlj
by5jb20wgZ8wDQYJKoZIhvcNAQEBBQADgY0AMIGJAoGBAOUECVlQRkU4NnHZDE+V
XaPIzp78yLud4gY3ffzjlTIIdp3ZKiQfeBi8N2aqhhF7uIFzoMmgXquFOgY+59na
1abL8jV6YINe7fs995yzXuzTeW0QUy/qIEU/CgOAhXObLYwAyKqMJAQ7buK8odTT
l9zCwzDQfhwAytHjAux03BwlAgMBAAGjggEPMIIBCzAJBgNVHRMEAjAAMCwGCWCG
SAGG+EIBDQQfFh1PcGVuU1NMIEdlbmVyYXRlZCBDZXJ0aWZpY2F0ZTAdBgNVHQ4E
FgQUcrX70bnaQ05Pgj7qDDteztP0hj8wgbAGA1UdIwSBqDCBpYAUEQcRzaN64TM1
sfviAvfFTpP/aH2hgYGkfzB9MQswCQYDVQQGEwJGUjEMMAoGA1UECBMDSURGMRAw
DgYDVQQHEwdQVVRFQVVYMREwDwYDVQQKEwhJbmdlbmljbzEWMBQGA1UEAxMNU2lt
dWxBdXRoby1DQTEjMCEGCSqGSIb3DQEJARYUaW5mb0Bmci5pbmdlbmljby5jb22C
CQDiPpWKth+XjjANBgkqhkiG9w0BAQQFAAOBgQCqYVSAyRNYM8EuE9Sn020VJHJP
L0Sf/QGjAclWR5sVJqp9/wdY+adP+rDDBCzznGTJB/8r8uRKFbFwiu1Ldj0IheSc
4XP0yHlDPILBcmnW9cEEn6IysUvmjvDVhp+fHumQmNw1wJpZyQflNyiEA0oZJ4+G
vogb22sX3cYQgHXI5Q==
-----END CERTIFICATE-----
